ASxxxx Linker V03.00 + NoICE + sdld,  page 1.
Hexadecimal  [32-Bits]

Area                                    Addr        Size        Decimal Bytes (Attributes)
--------------------------------        ----        ----        ------- ----- ------------
.  .ABS.                            00000000    00000000 =           0. bytes (ABS,CON)

      Value  Global                              Global Defined In Module
      -----  --------------------------------   ------------------------
     00000000  .__.ABS.                           
     00000000  _adjetivos_t                    
     00000000  _clearScreen                    
     00000000  _clearchar                      
     00000000  _conexiones_t                   
     00000000  _fzx                            
     00000000  _fzx_puts                       
     00000000  _fzx_setat                      
     00000000  _getKey                         
     00000000  _imagenes_t                     
     00000000  _localidades_t                  
     00000000  _mensajesSistema_t              
     00000000  _mensajes_t                     
     00000000  _nombres_t                      
     00000000  _objetos_t                      
     00000000  _print_char                     
     00000000  _proceso1                       
     00000000  _proceso1_post                  
     00000000  _proceso2                       
     00000000  _respuestas                     
     00000000  _respuestas_post                
     00000000  _scrollArriba                   
     00000000  _setAttr                        
     00000000  _setRAMBack                     
     00000000  _setRAMPage                     
     00000000  _verbos_t                       
     00000000  _waitForAnyKey                  
     00000000  _waitForNoKey                   
     00000000  l__CABS                         
     00000000  l__DABS                         
     00000000  l__GSFINAL                      
     00000000  l__GSINIT                       
     00000000  l__HOME                         
     00000000  s__CABS                         
     00000000  s__DABS                         
     0000014D  l__DATA                         
     000001A9  l__INITIALIZED                  
     000001A9  l__INITIALIZER                  
     00000200  s__CODE                         
     0000261A  l__CODE                         
     00008000  s__DATA                         
     0000814D  s__INITIALIZED                  
     000082F6  s__GSFINAL                      
     000082F6  s__GSINIT                       
     000082F6  s__HOME                         
     000082F6  s__INITIALIZER                  

ASxxxx Linker V03.00 + NoICE + sdld,  page 2.
Hexadecimal  [32-Bits]

Area                                    Addr        Size        Decimal Bytes (Attributes)
--------------------------------        ----        ----        ------- ----- ------------
_CODE                               00000200    0000261A =        9754. bytes (REL,CON)

      Value  Global                              Global Defined In Module
      -----  --------------------------------   ------------------------
     00000200  _initParser                        parser
     000002FB  _ParserLoop                        parser
     0000044C  _ACCNextWord                       parser
     000004BA  _ACCGetWord                        parser
     000004DE  _parse                             parser
     000005C5  _writeValue                        parser
     000005EE  _buscador                          parser
     0000066D  _ACCdesc                           parser
     00000678  _ACCdone                           parser
     0000067E  _ACCbreak                          parser
     00000687  _CNDat                             parser
     0000069B  _CNDnotat                          parser
     000006AE  _CNDatgt                           parser
     000006C0  _CNDatlt                           parser
     000006D2  _CNDpresent                        parser
     000007B8  _CNDabsent                         parser
     000007CA  _CNDworn                           parser
     000007E5  _CNDnotworn                        parser
     000007F7  _CNDnotcarr                        parser
     00000809  _CNDchance                         parser
     00000813  _CNDtimeout                        parser
     00000816  _CNDisat                           parser
     00000843  _CNDisnotat                        parser
     0000085C  _CNDprep                           parser
     00000876  _CNDsame                           parser
     00000898  _CNDnotsame                        parser
     000008BC  _CNDweight                         parser
     000008BF  _ACCinven                          parser
     000009E1  _ACCquit                           parser
     000009EF  _ACCend                            parser
     000009F5  _ACCok                             parser
     00000A03  _ACCramsave                        parser
     00000A04  _ACCramload                        parser
     00000A05  _ACCsave                           parser
     00000A06  _ACCload                           parser
     00000A07  _ACCturns                          parser
     00000A42  _ACCscore                          parser
     00000A7B  _ACCcls                            parser
     00000A95  _ACCautog                          parser
     00000AE7  _ACCautod                          parser
     00000B4D  _ACCpause                          parser
     00000B4E  _ACCgoto                           parser
     00000B61  _ACCclearexit                      parser
     00000B84  _ACCgetexit                        parser
     00000BCA  _ACCsetexit                        parser
     00000C01  _ACCmessage                        parser
     00000C16  _trytoGet                          parser
     00000CC9  _ACCget                            parser
     00000D74  _ACCdrop                           parser
     00000E0C  _ACCdestroy                        parser
ASxxxx Linker V03.00 + NoICE + sdld,  page 3.
Hexadecimal  [32-Bits]

Area                                    Addr        Size        Decimal Bytes (Attributes)
--------------------------------        ----        ----        ------- ----- ------------
_CODE                               00000200    0000261A =        9754. bytes (REL,CON)

      Value  Global                              Global Defined In Module
      -----  --------------------------------   ------------------------
     00000E23  _ACCcreate                         parser
     00000E43  _ACCswap                           parser
     00000E94  _ACCplace                          parser
     00000EED  _ACCnewline                        parser
     00000EF0  _ACCwriteText                      parser
     00000F0C  _ACCwrite                          parser
     00000F16  _ACCwriteln                        parser
     00000F22  _ACCsysmess                        parser
     00000F2E  _ACCcopyof                         parser
     00000F2F  _ACCcopyoo                         parser
     00000F30  _ACCcopyfo                         parser
     00000F31  _ACCcopyff                         parser
     00000F32  _ACClistat                         parser
     00001068  _ACClistnpc                        parser
     00001069  _ACClistobj                        parser
     000010C2  _ACCobjat                          parser
     000010D5  _ACCmes                            parser
     000010E8  _ACCweigh                          parser
     00001102  _ACCability                        parser
     00001117  _ACCweight                         parser
     0000113B  _ACCrandom                         parser
     0000113C  _ACCwhato                          parser
     0000113D  _ACCputo                           parser
     0000113E  _ACCnotdone                        parser
     00001144  _ACCautop                          parser
     00001145  _ACCautot                          parser
     00001146  _CNDmove                           parser
     00001149  _ACCpicture                        parser
     00001177  _ACCgraphic                        parser
     00001195  _ACCbeep                           parser
     00001196  _ACCsound                          parser
     00001197  _CNDozero                          parser
     000011BC  _CNDonotzero                       parser
     000011D4  _ACCoset                           parser
     0000123E  _ACCoclear                         parser
     000012B2  _CNDislight                        parser
     000012B3  _CNDisnotlight                     parser
     000012BE  _ACCversion                        parser
     000012BF  _ACCrestart                        parser
     000012C0  _ACCtranscript                     parser
     000012C1  _ACCanykey                         parser
     000012CC  _ACCgetkey                         parser
     000012CD  _CNDobjfound                       parser
     000012CE  _CNDobjnotfound                    parser
     000012CF  _CNDcarried                        parser
     00001304  _ACConeg                           parser
     00001305  _findMatchingObject                parser
     00001368  _isAccesibleContainer              parser
     000013D0  _ACCgetReferredObject              parser
     000014E3  _getFlag                           parser
     000014F2  _setFlag                           parser
ASxxxx Linker V03.00 + NoICE + sdld,  page 4.
Hexadecimal  [32-Bits]

Area                                    Addr        Size        Decimal Bytes (Attributes)
--------------------------------        ----        ----        ------- ----- ------------
_CODE                               00000200    0000261A =        9754. bytes (REL,CON)

      Value  Global                              Global Defined In Module
      -----  --------------------------------   ------------------------
     0000150A  _dropall                           parser
     00001555  _done                              parser
     0000155B  _desc                              parser
     00001561  _loc_here                          parser
     00001566  _get_loc_pos                       parser
     0000159B  _get_obj_pos                       parser
     000015D9  _get_img_pos                       parser
     00001607  _get_msg_pos                       parser
     00001618  _get_table_pos                     parser
     0000164B  _getObjectLocation                 parser
     00001675  _setObjectLocation                 parser
     000016CC  _objectIsSupporter                 parser
     000016F1  _objectIsContainer                 parser
     00001716  _objectIsAttr                      parser
     00001772  _getObjectWeight                   parser
     000017C2  _getLocationObjectsWeight          parser
     00001883  _getObjectCountAt                  parser
     000018ED  _getObjectCountAtWithAttr          parser
     00001944  _getNPCCountAt                     parser
     00001996  _objectIsNPC                       parser
     000019CF  _writeObject                       parser
     00001A95  _newLine                           parser
     00001ADF  _scrollVTextWindow                 parser
     00001AEF  _CaptionBox                        parser
     00001AF9  _writeTextCenter                   parser
     00001AFA  _writeTextln                       parser
     00001B0D  _writeText                         parser
     00001CF2  _writeSysMessage                   parser
     00001D12  _writeMessage                      parser
     00001D32  _defineGraphWindow                 parser
     00001D33  _defineTextWindow                  parser
     00001D5A  _clearGraphWindow                  parser
     00001D5B  _clearTextWindow                   parser
     00001E39  _clearTextLine                     parser
     00001E5B  _gotoxy                            parser
     00001E6D  _getInput                          parser
     00001EF2  _fontStyle                         parser
     00001EF3  _hideGraphicsWindow                parser
     00001F03  _setConnection                     parser
     00001F45  _getConnection                     parser
     00001F7A  _ACCautow                          parser
     00002005  _ACCautor                          parser
     00002090  _ACCremove                         parser
     00002142  _ACCwear                           parser
     000021E1  _ACCputin                          parser
     000022DC  _ACCtakeout                        parser
     000023CA  _incr16bit                         parser
     00002685  _strncmp                           _strncmp
     000026EB  ___itoa                            
     0000271C  ___uitoa                           
     000027CD  ___uitobcd                         
ASxxxx Linker V03.00 + NoICE + sdld,  page 5.
Hexadecimal  [32-Bits]

Area                                    Addr        Size        Decimal Bytes (Attributes)
--------------------------------        ----        ----        ------- ----- ------------
_CODE                               00000200    0000261A =        9754. bytes (REL,CON)

      Value  Global                              Global Defined In Module
      -----  --------------------------------   ------------------------
     00002804  ___strreverse                      
     0000280A  ___strreverse_reg                  

ASxxxx Linker V03.00 + NoICE + sdld,  page 6.
Hexadecimal  [32-Bits]

Area                                    Addr        Size        Decimal Bytes (Attributes)
--------------------------------        ----        ----        ------- ----- ------------
_DATA                               00008000    0000014D =         333. bytes (REL,CON)

      Value  Global                              Global Defined In Module
      -----  --------------------------------   ------------------------
     00008000  _flags                             parser
     000080FF  _playerInput                       parser
     0000811F  _playerWord                        parser
     00008138  _gWord_number                      parser
     00008139  _gChar_number                      parser
     0000813A  _TextWindow                        parser
     0000813E  _GraphWindow                       parser
     00008142  _gNUM_OBJECTS                      parser
     00008143  _gNUM_LOC                          parser
     00008144  _gLAST_OBJECT_NUMBER               parser
     00008145  _gNUM_IMG                          parser
     00008146  _gDONE_FLAG                        parser
     00008147  _gDESCRIBE_LOCATION_FLAG           parser
     00008148  _gIN_RESPONSE                      parser
     00008149  _gSUCCESS                          parser
     0000814A  _gDOALL_FLAG                       parser
     0000814B  _gPROCESS_IN_DOALL                 parser
     0000814C  _gCURRENT_PROCESS                  parser
ASxxxx Linker V03.00 + NoICE + sdld,  page 7.
Hexadecimal  [32-Bits]

Area                                    Addr        Size        Decimal Bytes (Attributes)
--------------------------------        ----        ----        ------- ----- ------------
_INITIALIZED                        0000814D    000001A9 =         425. bytes (REL,CON)

      Value  Global                              Global Defined In Module
      -----  --------------------------------   ------------------------
     0000814D  _symbol_list                       parser
     00008235  _playerPrompt                      parser
     00008237  _gDEBUGGER                         parser
     00008238  _gGRAPHICSON                       parser
     00008239  _gSOUNDSON                         parser
     0000823A  _gINTERRUPTDISABLED                parser
     0000823B  _gSHOWWARNINGS                     parser
     0000823C  _ginEND                            parser
     0000823D  _ginQUIT                           parser
     0000823E  _gENTRY_FOR_DOALL                  parser
     0000823F  _verbos_debug_t                    parser
     00008266  _adverbios_t                       parser
     0000827B  _preposiciones_t                   parser
     000082BD  _pronombres_t                      parser
     000082DE  _conjunciones_t                    parser
ASxxxx Linker V03.00 + NoICE + sdld,  page 8.
Hexadecimal  [32-Bits]

Area                                    Addr        Size        Decimal Bytes (Attributes)
--------------------------------        ----        ----        ------- ----- ------------
_INITIALIZER                        000082F6    000001A9 =         425. bytes (REL,CON)

      Value  Global                              Global Defined In Module
      -----  --------------------------------   ------------------------
ASxxxx Linker V03.00 + NoICE + sdld,  page 9.

Files Linked                              [ module(s) ]

parser.rel                                [ parser ]


Libraries Linked                          [ object file ]

D:\devel\z80\zminif\sdcc\bin\..\lib\z80/z80.lib
                                          [ _strncmp.rel ]
D:\devel\z80\zminif\sdcc\bin\..\lib\z80/z80.lib
                                          [ __itoa.rel ]
D:\devel\z80\zminif\sdcc\bin\..\lib\z80/z80.lib
                                          [ __uitobcd.rel ]
D:\devel\z80\zminif\sdcc\bin\..\lib\z80/z80.lib
                                          [ __strreverse.rel ]

ASxxxx Linker V03.00 + NoICE + sdld,  page 10.

User Base Address Definitions

_CODE = 0x0200
_DATA = 0x8000


?ASlink-Warning-Undefined Global '_verbos_t' referenced by module 'parser'

?ASlink-Warning-Undefined Global '_clearchar' referenced by module 'parser'

?ASlink-Warning-Undefined Global '_setAttr' referenced by module 'parser'

?ASlink-Warning-Undefined Global '_clearScreen' referenced by module 'parser'

?ASlink-Warning-Undefined Global '_getKey' referenced by module 'parser'

?ASlink-Warning-Undefined Global '_setRAMPage' referenced by module 'parser'

?ASlink-Warning-Undefined Global '_mensajes_t' referenced by module 'parser'

?ASlink-Warning-Undefined Global '_print_char' referenced by module 'parser'

?ASlink-Warning-Undefined Global '_proceso1' referenced by module 'parser'

?ASlink-Warning-Undefined Global '_waitForAnyKey' referenced by module 'parser'

?ASlink-Warning-Undefined Global '_proceso2' referenced by module 'parser'

?ASlink-Warning-Undefined Global '_respuestas_post' referenced by module 'parser'

?ASlink-Warning-Undefined Global '_mensajesSistema_t' referenced by module 'parser'

?ASlink-Warning-Undefined Global '_waitForNoKey' referenced by module 'parser'

?ASlink-Warning-Undefined Global '_fzx_puts' referenced by module 'parser'

?ASlink-Warning-Undefined Global '_localidades_t' referenced by module 'parser'

?ASlink-Warning-Undefined Global '_objetos_t' referenced by module 'parser'

?ASlink-Warning-Undefined Global '_nombres_t' referenced by module 'parser'

?ASlink-Warning-Undefined Global '_conexiones_t' referenced by module 'parser'

?ASlink-Warning-Undefined Global '_respuestas' referenced by module 'parser'

?ASlink-Warning-Undefined Global '_proceso1_post' referenced by module 'parser'

?ASlink-Warning-Undefined Global '_fzx_setat' referenced by module 'parser'

?ASlink-Warning-Undefined Global '_fzx' referenced by module 'parser'

?ASlink-Warning-Undefined Global '_imagenes_t' referenced by module 'parser'

?ASlink-Warning-Undefined Global '_adjetivos_t' referenced by module 'parser'

?ASlink-Warning-Undefined Global '_setRAMBack' referenced by module 'parser'

?ASlink-Warning-Undefined Global '_scrollArriba' referenced by module 'parser'
